; ModuleID = '56/908.c'
source_filename = "56/908.c"
target datalayout = "e-m:e-p270:32:32-p271:32:32-p272:64:64-i64:64-f80:128-n8:16:32:64-S128"
target triple = "x86_64-pc-linux-gnu"

@.str = private unnamed_addr constant [3 x i8] c"%c\00", align 1

; Function Attrs: noinline nounwind uwtable
define dso_local void @main() #0 {
  %1 = alloca [5 x i8], align 1
  %2 = alloca i8, align 1
  %3 = alloca i32, align 4
  store i32 0, i32* %3, align 4
  br label %4

4:                                                ; preds = %14, %0
  %5 = call i32 @getchar()
  %6 = trunc i32 %5 to i8
  store i8 %6, i8* %2, align 1
  %7 = sext i8 %6 to i32
  %8 = icmp ne i32 %7, 10
  br i1 %8, label %9, label %17

9:                                                ; preds = %4
  %10 = load i8, i8* %2, align 1
  %11 = load i32, i32* %3, align 4
  %12 = sext i32 %11 to i64
  %13 = getelementptr inbounds [5 x i8], [5 x i8]* %1, i64 0, i64 %12
  store i8 %10, i8* %13, align 1
  br label %14

14:                                               ; preds = %9
  %15 = load i32, i32* %3, align 4
  %16 = add nsw i32 %15, 1
  store i32 %16, i32* %3, align 4
  br label %4

17:                                               ; preds = %4
  %18 = load i32, i32* %3, align 4
  %19 = sub nsw i32 %18, 1
  store i32 %19, i32* %3, align 4
  br label %20

20:                                               ; preds = %23, %17
  %21 = load i32, i32* %3, align 4
  %22 = icmp sge i32 %21, 0
  br i1 %22, label %23, label %33

23:                                               ; preds = %20
  %24 = load i32, i32* %3, align 4
  %25 = sext i32 %24 to i64
  %26 = getelementptr inbounds [5 x i8], [5 x i8]* %1, i64 0, i64 %25
  %27 = load i8, i8* %26, align 1
  store i8 %27, i8* %2, align 1
  %28 = load i8, i8* %2, align 1
  %29 = sext i8 %28 to i32
  %30 = call i32 (i8*, ...) @printf(i8* getelementptr inbounds ([3 x i8], [3 x i8]* @.str, i64 0, i64 0), i32 %29)
  %31 = load i32, i32* %3, align 4
  %32 = sub nsw i32 %31, 1
  store i32 %32, i32* %3, align 4
  br label %20

33:                                               ; preds = %20
  ret void
}

declare dso_local i32 @getchar() #1

declare dso_local i32 @printf(i8*, ...) #1


!llvm.module.flags = !{!0}
!llvm.ident = !{!1}

!0 = !{i32 1, !"wchar_size", i32 4}
!1 = !{!"clang version 10.0.0-4ubuntu1 "}
